; Function Attrs: mustprogress nounwind uwtable
define dso_local noundef zeroext i1 @_ZN5clang4ento21tagged_union_modeling20isCopyAssignmentCallERKNS0_9CallEventE(ptr noundef nonnull align 8 dereferenceable(72) %0) local_unnamed_addr #0 {
  %2 = load ptr, ptr %0, align 8
  %3 = getelementptr inbounds i8, ptr %2, i64 48
  %4 = load ptr, ptr %3, align 8
  %5 = tail call noundef ptr %4(ptr noundef nonnull align 8 dereferenceable(72) %0) #15
  %.not.i.i = icmp eq ptr %5, null
  br i1 %.not.i.i, label %_ZN4llvm16dyn_cast_or_nullIN5clang13CXXMethodDeclEKNS1_4DeclEEEDaPT0_.exit.thread, label %6

6:                                                ; preds = %1
  %7 = getelementptr inbounds nuw i8, ptr %5, i64 28
  %8 = load i32, ptr %7, align 4
  %9 = and i32 %8, 124
  %10 = icmp eq i32 %9, 32
  br i1 %10, label %_ZN4llvm16dyn_cast_or_nullIN5clang13CXXMethodDeclEKNS1_4DeclEEEDaPT0_.exit, label %_ZN4llvm16dyn_cast_or_nullIN5clang13CXXMethodDeclEKNS1_4DeclEEEDaPT0_.exit.thread

_ZN4llvm16dyn_cast_or_nullIN5clang13CXXMethodDeclEKNS1_4DeclEEEDaPT0_.exit: ; preds = %6
  %11 = tail call noundef zeroext i1 @_ZNK5clang13CXXMethodDecl24isCopyAssignmentOperatorEv(ptr noundef nonnull align 8 dereferenceable(168) %5) #15
  br label %_ZN4llvm16dyn_cast_or_nullIN5clang13CXXMethodDeclEKNS1_4DeclEEEDaPT0_.exit.thread

_ZN4llvm16dyn_cast_or_nullIN5clang13CXXMethodDeclEKNS1_4DeclEEEDaPT0_.exit.thread: ; preds = %1, %6, %_ZN4llvm16dyn_cast_or_nullIN5clang13CXXMethodDeclEKNS1_4DeclEEEDaPT0_.exit
  %.0 = phi i1 [ %11, %_ZN4llvm16dyn_cast_or_nullIN5clang13CXXMethodDeclEKNS1_4DeclEEEDaPT0_.exit ], [ false, %6 ], [ false, %1 ]
  ret i1 %.0
}